target datalayout = "e-m:e-p270:32:32-p271:32:32-p272:64:64-i64:64-i128:128-f80:128-n8:16:32:64-S128"
target triple = "x86_64-pc-linux-gnu"

%struct._asn1_ctx_t = type { i32, i32, i8, ptr, ptr, ptr, ptr, ptr, %struct.anon, %struct.anon.2, %struct.anon.3, ptr }
%struct.anon = type { i32, i8, i8, i8, ptr, ptr, i32, i32, ptr, ptr, ptr, %union.anon }
%union.anon = type { %struct.anon.0 }
%struct.anon.0 = type { ptr }
%struct.anon.2 = type { ptr, ptr, ptr }
%struct.anon.3 = type { i32, i8, ptr, i32, i32, ptr, ptr, ptr, %union.anon.4 }
%union.anon.4 = type { %struct.anon.5 }
%struct.anon.5 = type { ptr }
%struct._packet_info = type { ptr, ptr, i32, i32, %struct.nstime_t, %struct.nstime_t, %struct.nstime_t, i8, ptr, ptr, ptr, ptr, %struct._address, %struct._address, %struct._address, %struct._address, %struct._address, %struct._address, i32, ptr, i8, [3 x i8], %struct.anon.7, i32, i32, i32, i32, ptr, i8, ptr, ptr, i16, i16, i32, i32, i16, i32, i32, ptr, ptr, ptr, i8, i8, i16, i16, i16, i32, i16, i16, ptr, ptr, ptr, ptr, ptr, i32, i32 }
%struct.nstime_t = type { i64, i32 }
%struct._address = type { i32, i32, ptr, ptr }
%struct.anon.7 = type { i8, [3 x i8] }
%struct.p1_address_ctx = type { i8, ptr, i8, ptr }

@proto_p1 = internal global i32 0, align 4
@.str.1651 = private unnamed_addr constant [9 x i8] c" (%s=%s)\00", align 1

; Function Attrs: null_pointer_is_valid sspstrong uwtable
define internal ptr @get_do_address_ctx(ptr noundef %0) #0 {
  %2 = alloca ptr, align 8
  %3 = alloca ptr, align 8
  store ptr %0, ptr %2, align 8
  call void @llvm.lifetime.start.p0(i64 8, ptr %3) #5
  store ptr null, ptr %3, align 8
  %4 = load ptr, ptr %2, align 8
  %5 = getelementptr inbounds nuw %struct._asn1_ctx_t, ptr %4, i32 0, i32 3
  %6 = load ptr, ptr %5, align 8
  %7 = getelementptr inbounds nuw %struct._packet_info, ptr %6, i32 0, i32 51
  %8 = load ptr, ptr %7, align 8
  %9 = load ptr, ptr %2, align 8
  %10 = getelementptr inbounds nuw %struct._asn1_ctx_t, ptr %9, i32 0, i32 3
  %11 = load ptr, ptr %10, align 8
  %12 = load i32, ptr @proto_p1, align 4
  %13 = call ptr @p_get_proto_data(ptr noundef %8, ptr noundef %11, i32 noundef %12, i32 noundef 0)
  store ptr %13, ptr %3, align 8
  %14 = load ptr, ptr %3, align 8
  %15 = icmp ne ptr %14, null
  br i1 %15, label %21, label %16

16:                                               ; preds = %1
  %17 = load ptr, ptr %2, align 8
  %18 = getelementptr inbounds nuw %struct._asn1_ctx_t, ptr %17, i32 0, i32 9
  %19 = getelementptr inbounds nuw %struct.anon.2, ptr %18, i32 0, i32 2
  %20 = load ptr, ptr %19, align 8
  store ptr %20, ptr %3, align 8
  br label %21

21:                                               ; preds = %16, %1
  %22 = load ptr, ptr %3, align 8
  call void @llvm.lifetime.end.p0(i64 8, ptr %3) #5
  ret ptr %22
}

; Function Attrs: null_pointer_is_valid sspstrong uwtable
define internal void @do_address_str_tree(ptr noundef %0, ptr noundef %1, ptr noundef %2, ptr noundef %3) #0 {
  %5 = alloca ptr, align 8
  %6 = alloca ptr, align 8
  %7 = alloca ptr, align 8
  %8 = alloca ptr, align 8
  %9 = alloca ptr, align 8
  %10 = alloca ptr, align 8
  store ptr %0, ptr %5, align 8
  store ptr %1, ptr %6, align 8
  store ptr %2, ptr %7, align 8
  store ptr %3, ptr %8, align 8
  call void @llvm.lifetime.start.p0(i64 8, ptr %9) #5
  %11 = load ptr, ptr %7, align 8
  %12 = getelementptr inbounds nuw %struct._asn1_ctx_t, ptr %11, i32 0, i32 6
  %13 = load ptr, ptr %12, align 8
  store ptr %13, ptr %9, align 8
  call void @llvm.lifetime.start.p0(i64 8, ptr %10) #5
  %14 = load ptr, ptr %7, align 8
  %15 = call ptr @get_do_address_ctx(ptr noundef %14)
  store ptr %15, ptr %10, align 8
  %16 = load ptr, ptr %5, align 8
  %17 = load ptr, ptr %6, align 8
  %18 = load ptr, ptr %7, align 8
  call void @do_address(ptr noundef %16, ptr noundef %17, ptr noundef %18)
  %19 = load ptr, ptr %10, align 8
  %20 = icmp ne ptr %19, null
  br i1 %20, label %21, label %50

21:                                               ; preds = %4
  %22 = load ptr, ptr %10, align 8
  %23 = getelementptr inbounds nuw %struct.p1_address_ctx, ptr %22, i32 0, i32 0
  %24 = load i8, ptr %23, align 8, !range !6, !noundef !7
  %25 = trunc i8 %24 to i1
  br i1 %25, label %26, label %50

26:                                               ; preds = %21
  %27 = load ptr, ptr %6, align 8
  %28 = icmp ne ptr %27, null
  br i1 %28, label %29, label %50

29:                                               ; preds = %26
  %30 = load ptr, ptr %9, align 8
  %31 = icmp ne ptr %30, null
  br i1 %31, label %32, label %50

32:                                               ; preds = %29
  %33 = load ptr, ptr %9, align 8
  %34 = call i64 @wmem_strbuf_get_len(ptr noundef %33)
  %35 = icmp ugt i64 %34, 0
  br i1 %35, label %36, label %49

36:                                               ; preds = %32
  %37 = load ptr, ptr %8, align 8
  %38 = load ptr, ptr %9, align 8
  %39 = call ptr @wmem_strbuf_get_str(ptr noundef %38)
  %40 = load ptr, ptr %7, align 8
  %41 = getelementptr inbounds nuw %struct._asn1_ctx_t, ptr %40, i32 0, i32 3
  %42 = load ptr, ptr %41, align 8
  %43 = getelementptr inbounds nuw %struct._packet_info, ptr %42, i32 0, i32 51
  %44 = load ptr, ptr %43, align 8
  %45 = load ptr, ptr %6, align 8
  %46 = load ptr, ptr %6, align 8
  %47 = call i32 @tvb_captured_length(ptr noundef %46)
  %48 = call ptr @tvb_format_text(ptr noundef %44, ptr noundef %45, i32 noundef 0, i32 noundef %47)
  call void (ptr, ptr, ...) @proto_item_append_text(ptr noundef %37, ptr noundef @.str.1651, ptr noundef %39, ptr noundef %48)
  br label %49

49:                                               ; preds = %36, %32
  br label %50

50:                                               ; preds = %49, %29, %26, %21, %4
  call void @llvm.lifetime.end.p0(i64 8, ptr %10) #5
  call void @llvm.lifetime.end.p0(i64 8, ptr %9) #5
  ret void
}