; Function Attrs: null_pointer_is_valid sspstrong uwtable
define internal fastcc void @do_address_str_tree(ptr noundef %0, ptr noundef readonly captures(none) %1, ptr noundef %2) unnamed_addr #0 {
  %4 = getelementptr inbounds nuw i8, ptr %1, i64 40
  %5 = load ptr, ptr %4, align 8
  %6 = getelementptr inbounds nuw i8, ptr %1, i64 16
  %7 = load ptr, ptr %6, align 8
  %8 = getelementptr inbounds nuw i8, ptr %7, i64 408
  %9 = load ptr, ptr %8, align 8
  %10 = load i32, ptr @proto_p1, align 4
  %11 = tail call ptr @p_get_proto_data(ptr noundef %9, ptr noundef %7, i32 noundef %10, i32 noundef 0)
  %.not.i = icmp eq ptr %11, null
  br i1 %.not.i, label %get_do_address_ctx.exit, label %get_do_address_ctx.exit.thread

get_do_address_ctx.exit.thread:                   ; preds = %3
  tail call fastcc void @do_address(ptr noundef nonnull @.str.1650, ptr noundef %0, ptr noundef %1)
  br label %14

get_do_address_ctx.exit:                          ; preds = %3
  %12 = getelementptr inbounds nuw i8, ptr %1, i64 136
  %13 = load ptr, ptr %12, align 8
  tail call fastcc void @do_address(ptr noundef nonnull @.str.1650, ptr noundef %0, ptr noundef %1)
  %.not = icmp eq ptr %13, null
  br i1 %.not, label %28, label %14

14:                                               ; preds = %get_do_address_ctx.exit.thread, %get_do_address_ctx.exit
  %.0.i3 = phi ptr [ %11, %get_do_address_ctx.exit.thread ], [ %13, %get_do_address_ctx.exit ]
  %15 = load i8, ptr %.0.i3, align 8, !range !6, !noundef !7
  %16 = trunc nuw i8 %15 to i1
  %17 = icmp ne ptr %0, null
  %or.cond = and i1 %17, %16
  %18 = icmp ne ptr %5, null
  %or.cond3 = select i1 %or.cond, i1 %18, i1 false
  br i1 %or.cond3, label %19, label %28

19:                                               ; preds = %14
  %20 = tail call i64 @wmem_strbuf_get_len(ptr noundef nonnull %5)
  %.not20 = icmp eq i64 %20, 0
  br i1 %.not20, label %28, label %21

21:                                               ; preds = %19
  %22 = tail call ptr @wmem_strbuf_get_str(ptr noundef nonnull %5)
  %23 = load ptr, ptr %6, align 8
  %24 = getelementptr inbounds nuw i8, ptr %23, i64 408
  %25 = load ptr, ptr %24, align 8
  %26 = tail call i32 @tvb_captured_length(ptr noundef nonnull %0)
  %27 = tail call ptr @tvb_format_text(ptr noundef %25, ptr noundef nonnull %0, i32 noundef 0, i32 noundef %26)
  tail call void (ptr, ptr, ...) @proto_item_append_text(ptr noundef %2, ptr noundef nonnull @.str.1651, ptr noundef %22, ptr noundef %27)
  br label %28

28:                                               ; preds = %19, %21, %14, %get_do_address_ctx.exit
  ret void
}